target datalayout = "e-m:e-p270:32:32-p271:32:32-p272:64:64-i64:64-i128:128-f80:128-n8:16:32:64-S128"
target triple = "x86_64-pc-linux-gnu"

%struct.wtap = type { ptr, ptr, i8, i32, i32, ptr, ptr, ptr, i32, ptr, ptr, ptr, ptr, ptr, ptr, ptr, ptr, ptr, ptr, i32, i32, ptr, ptr, ptr, ptr }

@.str.12 = private unnamed_addr constant [2 x i8] c"<\00", align 1

; Function Attrs: null_pointer_is_valid sspstrong uwtable
define internal i32 @wtap_file_read_till_separator(ptr noundef %0, ptr noundef %1, i32 noundef %2, ptr noundef %3, ptr noundef %4, ptr noundef %5) #0 {
  %7 = alloca i32, align 4
  %8 = alloca ptr, align 8
  %9 = alloca ptr, align 8
  %10 = alloca i32, align 4
  %11 = alloca ptr, align 8
  %12 = alloca ptr, align 8
  %13 = alloca ptr, align 8
  %14 = alloca i32, align 4
  %15 = alloca ptr, align 8
  %16 = alloca i32, align 4
  %17 = alloca i32, align 4
  store ptr %0, ptr %8, align 8
  store ptr %1, ptr %9, align 8
  store i32 %2, ptr %10, align 4
  store ptr %3, ptr %11, align 8
  store ptr %4, ptr %12, align 8
  store ptr %5, ptr %13, align 8
  call void @llvm.lifetime.start.p0(i64 4, ptr %14) #11
  call void @llvm.lifetime.start.p0(i64 8, ptr %15) #11
  call void @llvm.lifetime.start.p0(i64 4, ptr %16) #11
  %18 = load ptr, ptr %9, align 8
  store ptr %18, ptr %15, align 8
  store i32 0, ptr %16, align 4
  br label %19

19:                                               ; preds = %58, %6
  %20 = load i32, ptr %16, align 4
  %21 = load i32, ptr %10, align 4
  %22 = icmp slt i32 %20, %21
  br i1 %22, label %23, label %63

23:                                               ; preds = %19
  %24 = load ptr, ptr %8, align 8
  %25 = getelementptr inbounds nuw %struct.wtap, ptr %24, i32 0, i32 0
  %26 = load ptr, ptr %25, align 8
  %27 = call i32 @file_getc(ptr noundef %26)
  store i32 %27, ptr %14, align 4
  %28 = load i32, ptr %14, align 4
  %29 = icmp eq i32 %28, -1
  br i1 %29, label %30, label %46

30:                                               ; preds = %23
  %31 = load ptr, ptr %8, align 8
  %32 = getelementptr inbounds nuw %struct.wtap, ptr %31, i32 0, i32 0
  %33 = load ptr, ptr %32, align 8
  %34 = load ptr, ptr %13, align 8
  %35 = call i32 @file_error(ptr noundef %33, ptr noundef %34)
  %36 = load ptr, ptr %12, align 8
  store i32 %35, ptr %36, align 4
  %37 = load ptr, ptr %12, align 8
  %38 = load i32, ptr %37, align 4
  %39 = icmp ne i32 %38, 0
  br i1 %39, label %40, label %45

40:                                               ; preds = %30
  %41 = load ptr, ptr %12, align 8
  %42 = load i32, ptr %41, align 4
  %43 = icmp ne i32 %42, -12
  br i1 %43, label %44, label %45

44:                                               ; preds = %40
  store i32 -1, ptr %7, align 4
  store i32 1, ptr %17, align 4
  br label %65

45:                                               ; preds = %40, %30
  store i32 0, ptr %7, align 4
  store i32 1, ptr %17, align 4
  br label %65

46:                                               ; preds = %23
  %47 = load ptr, ptr %11, align 8
  %48 = load i32, ptr %14, align 4
  %49 = call ptr @strchr(ptr noundef %47, i32 noundef %48) #12
  %50 = icmp ne ptr %49, null
  br i1 %50, label %51, label %53

51:                                               ; preds = %46
  %52 = load ptr, ptr %15, align 8
  store i8 0, ptr %52, align 1
  br label %63

53:                                               ; preds = %46
  %54 = load i32, ptr %14, align 4
  %55 = trunc i32 %54 to i8
  %56 = load ptr, ptr %15, align 8
  store i8 %55, ptr %56, align 1
  br label %57

57:                                               ; preds = %53
  br label %58

58:                                               ; preds = %57
  %59 = load i32, ptr %16, align 4
  %60 = add i32 %59, 1
  store i32 %60, ptr %16, align 4
  %61 = load ptr, ptr %15, align 8
  %62 = getelementptr i8, ptr %61, i32 1
  store ptr %62, ptr %15, align 8
  br label %19, !llvm.loop !8

63:                                               ; preds = %51, %19
  %64 = load i32, ptr %16, align 4
  store i32 %64, ptr %7, align 4
  store i32 1, ptr %17, align 4
  br label %65

65:                                               ; preds = %63, %45, %44
  call void @llvm.lifetime.end.p0(i64 4, ptr %16) #11
  call void @llvm.lifetime.end.p0(i64 8, ptr %15) #11
  call void @llvm.lifetime.end.p0(i64 4, ptr %14) #11
  %66 = load i32, ptr %7, align 4
  ret i32 %66
}

; Function Attrs: null_pointer_is_valid sspstrong uwtable
define internal i32 @wtap_file_read_number(ptr noundef %0, ptr noundef %1, ptr noundef %2, ptr noundef %3) #0 {
  %5 = alloca i32, align 4
  %6 = alloca ptr, align 8
  %7 = alloca ptr, align 8
  %8 = alloca ptr, align 8
  %9 = alloca ptr, align 8
  %10 = alloca i32, align 4
  %11 = alloca [12 x i8], align 1
  %12 = alloca i64, align 8
  %13 = alloca ptr, align 8
  %14 = alloca i32, align 4
  store ptr %0, ptr %6, align 8
  store ptr %1, ptr %7, align 8
  store ptr %2, ptr %8, align 8
  store ptr %3, ptr %9, align 8
  call void @llvm.lifetime.start.p0(i64 4, ptr %10) #11
  call void @llvm.lifetime.start.p0(i64 12, ptr %11) #11
  call void @llvm.lifetime.start.p0(i64 8, ptr %12) #11
  call void @llvm.lifetime.start.p0(i64 8, ptr %13) #11
  %15 = load ptr, ptr %6, align 8
  %16 = getelementptr inbounds [12 x i8], ptr %11, i64 0, i64 0
  %17 = load ptr, ptr %8, align 8
  %18 = load ptr, ptr %9, align 8
  %19 = call i32 @wtap_file_read_till_separator(ptr noundef %15, ptr noundef %16, i32 noundef 11, ptr noundef @.str.12, ptr noundef %17, ptr noundef %18)
  store i32 %19, ptr %10, align 4
  %20 = load i32, ptr %10, align 4
  %21 = icmp eq i32 %20, 0
  br i1 %21, label %25, label %22

22:                                               ; preds = %4
  %23 = load i32, ptr %10, align 4
  %24 = icmp eq i32 %23, -1
  br i1 %24, label %25, label %27

25:                                               ; preds = %22, %4
  %26 = load i32, ptr %10, align 4
  store i32 %26, ptr %5, align 4
  store i32 1, ptr %14, align 4
  br label %41

27:                                               ; preds = %22
  %28 = getelementptr inbounds [12 x i8], ptr %11, i64 0, i64 0
  %29 = call i64 @strtoul(ptr noundef %28, ptr noundef %13, i32 noundef 10) #11
  store i64 %29, ptr %12, align 8
  %30 = load ptr, ptr %13, align 8
  %31 = getelementptr inbounds [12 x i8], ptr %11, i64 0, i64 0
  %32 = icmp eq ptr %30, %31
  br i1 %32, label %36, label %33

33:                                               ; preds = %27
  %34 = load i64, ptr %12, align 8
  %35 = icmp ugt i64 %34, 4294967295
  br i1 %35, label %36, label %37

36:                                               ; preds = %33, %27
  store i32 0, ptr %5, align 4
  store i32 1, ptr %14, align 4
  br label %41

37:                                               ; preds = %33
  %38 = load i64, ptr %12, align 8
  %39 = trunc i64 %38 to i32
  %40 = load ptr, ptr %7, align 8
  store i32 %39, ptr %40, align 4
  store i32 1, ptr %5, align 4
  store i32 1, ptr %14, align 4
  br label %41

41:                                               ; preds = %37, %36, %25
  call void @llvm.lifetime.end.p0(i64 8, ptr %13) #11
  call void @llvm.lifetime.end.p0(i64 8, ptr %12) #11
  call void @llvm.lifetime.end.p0(i64 12, ptr %11) #11
  call void @llvm.lifetime.end.p0(i64 4, ptr %10) #11
  %42 = load i32, ptr %5, align 4
  ret i32 %42
}