; Function Attrs: null_pointer_is_valid sspstrong uwtable
define internal fastcc range(i32 -1, 2) i32 @wtap_file_read_number(ptr noundef readonly captures(none) %0, ptr noundef writeonly captures(none) %1, ptr noundef writeonly captures(none) %2, ptr noundef %3) unnamed_addr #0 {
  %5 = alloca [12 x i8], align 1
  %6 = alloca ptr, align 8
  call void @llvm.lifetime.start.p0(i64 12, ptr nonnull %5) #7
  call void @llvm.lifetime.start.p0(i64 8, ptr nonnull %6) #7
  br label %7

7:                                                ; preds = %18, %4
  %.06.i = phi i32 [ 0, %4 ], [ %19, %18 ]
  %.0185.i = phi ptr [ %5, %4 ], [ %20, %18 ]
  %8 = load ptr, ptr %0, align 8
  %9 = tail call i32 @file_getc(ptr noundef %8)
  %10 = icmp eq i32 %9, -1
  br i1 %10, label %11, label %15

11:                                               ; preds = %7
  %12 = load ptr, ptr %0, align 8
  %13 = tail call i32 @file_error(ptr noundef %12, ptr noundef %3)
  store i32 %13, ptr %2, align 4
  %switch.selectcmp.case1.i = icmp ne i32 %13, 0
  %switch.selectcmp.case2.i = icmp ne i32 %13, -12
  %switch.selectcmp.not.i = and i1 %switch.selectcmp.case1.i, %switch.selectcmp.case2.i
  %14 = sext i1 %switch.selectcmp.not.i to i32
  br label %wtap_file_read_till_separator.exit

15:                                               ; preds = %7
  %16 = trunc i32 %9 to i8
  switch i8 %16, label %18 [
    i8 60, label %17
    i8 0, label %17
  ]

17:                                               ; preds = %15, %15
  store i8 0, ptr %.0185.i, align 1
  br label %wtap_file_read_till_separator.exit

18:                                               ; preds = %15
  store i8 %16, ptr %.0185.i, align 1
  %19 = add nuw nsw i32 %.06.i, 1
  %20 = getelementptr i8, ptr %.0185.i, i64 1
  %exitcond.not.i = icmp eq i32 %19, 11
  br i1 %exitcond.not.i, label %wtap_file_read_till_separator.exit.thread, label %7, !llvm.loop !8

wtap_file_read_till_separator.exit:               ; preds = %11, %17
  %.019.i = phi i32 [ %.06.i, %17 ], [ %14, %11 ]
  %21 = add i32 %.019.i, 1
  %or.cond = icmp ult i32 %21, 2
  br i1 %or.cond, label %28, label %wtap_file_read_till_separator.exit.thread

wtap_file_read_till_separator.exit.thread:        ; preds = %18, %wtap_file_read_till_separator.exit
  %22 = call i64 @strtoul(ptr noundef nonnull %5, ptr noundef nonnull %6, i32 noundef 10) #7
  %23 = load ptr, ptr %6, align 8
  %24 = icmp eq ptr %23, %5
  %25 = icmp ugt i64 %22, 4294967295
  %or.cond3 = select i1 %24, i1 true, i1 %25
  br i1 %or.cond3, label %28, label %26

26:                                               ; preds = %wtap_file_read_till_separator.exit.thread
  %27 = trunc nuw i64 %22 to i32
  store i32 %27, ptr %1, align 4
  br label %28

28:                                               ; preds = %wtap_file_read_till_separator.exit.thread, %wtap_file_read_till_separator.exit, %26
  %.0 = phi i32 [ 1, %26 ], [ %.019.i, %wtap_file_read_till_separator.exit ], [ 0, %wtap_file_read_till_separator.exit.thread ]
  call void @llvm.lifetime.end.p0(i64 8, ptr nonnull %6) #7
  call void @llvm.lifetime.end.p0(i64 12, ptr nonnull %5) #7
  ret i32 %.0
}